; Function Attrs: nounwind uwtable
define ptr @l_Lean_Meta_forEachExpr_x27___rarg___lambda__4(ptr noundef %0, ptr readnone captures(none) %1, ptr readnone captures(none) %2, ptr readnone captures(none) %3, ptr readnone captures(none) %4, ptr noundef %5) local_unnamed_addr #0 {
  %7 = tail call ptr @lean_st_ref_get(ptr noundef %0, ptr noundef %5) #4
  %.val = load i32, ptr %7, align 4, !tbaa !4
  %8 = icmp eq i32 %.val, 1
  br i1 %8, label %45, label %9

9:                                                ; preds = %6
  %10 = getelementptr inbounds nuw i8, ptr %7, i64 8
  %11 = load ptr, ptr %10, align 8, !tbaa !9
  %12 = getelementptr inbounds nuw i8, ptr %7, i64 16
  %13 = load ptr, ptr %12, align 8, !tbaa !9
  %14 = ptrtoint ptr %13 to i64
  %15 = and i64 %14, 1
  %.not = icmp eq i64 %15, 0
  br i1 %.not, label %16, label %lean_inc.exit15

16:                                               ; preds = %9
  %.val.i = load i32, ptr %13, align 4, !tbaa !4
  %17 = icmp sgt i32 %.val.i, 0
  br i1 %17, label %18, label %20, !prof !13

18:                                               ; preds = %16
  %19 = add nuw i32 %.val.i, 1
  store i32 %19, ptr %13, align 4, !tbaa !4
  br label %lean_inc.exit15

20:                                               ; preds = %16
  %.not.i16 = icmp eq i32 %.val.i, 0
  br i1 %.not.i16, label %lean_inc.exit15, label %21

21:                                               ; preds = %20
  tail call void @lean_inc_ref_cold(ptr noundef nonnull %13) #4
  br label %lean_inc.exit15

lean_inc.exit15:                                  ; preds = %21, %20, %18, %9
  %22 = ptrtoint ptr %11 to i64
  %23 = and i64 %22, 1
  %.not20 = icmp eq i64 %23, 0
  br i1 %.not20, label %24, label %lean_inc.exit

24:                                               ; preds = %lean_inc.exit15
  %.val.i17 = load i32, ptr %11, align 4, !tbaa !4
  %25 = icmp sgt i32 %.val.i17, 0
  br i1 %25, label %26, label %28, !prof !13

26:                                               ; preds = %24
  %27 = add nuw i32 %.val.i17, 1
  store i32 %27, ptr %11, align 4, !tbaa !4
  br label %lean_inc.exit

28:                                               ; preds = %24
  %.not.i18 = icmp eq i32 %.val.i17, 0
  br i1 %.not.i18, label %lean_inc.exit, label %29

29:                                               ; preds = %28
  tail call void @lean_inc_ref_cold(ptr noundef nonnull %11) #4
  br label %lean_inc.exit

lean_inc.exit:                                    ; preds = %29, %28, %26, %lean_inc.exit15
  %30 = ptrtoint ptr %7 to i64
  %31 = and i64 %30, 1
  %.not21 = icmp eq i64 %31, 0
  br i1 %.not21, label %32, label %lean_dec.exit

32:                                               ; preds = %lean_inc.exit
  %33 = load i32, ptr %7, align 4, !tbaa !4
  %34 = icmp sgt i32 %33, 1
  br i1 %34, label %35, label %37, !prof !13

35:                                               ; preds = %32
  %36 = add nsw i32 %33, -1
  store i32 %36, ptr %7, align 4, !tbaa !4
  br label %lean_dec.exit

37:                                               ; preds = %32
  %.not.i = icmp eq i32 %33, 0
  br i1 %.not.i, label %lean_dec.exit, label %38

38:                                               ; preds = %37
  tail call void @lean_dec_ref_cold(ptr noundef nonnull %7) #4
  br label %lean_dec.exit

lean_dec.exit:                                    ; preds = %38, %37, %35, %lean_inc.exit
  tail call void @lean_inc_heartbeat() #4
  %39 = tail call noalias ptr @mi_malloc_small(i64 noundef 24) #4
  %40 = icmp eq ptr %39, null
  br i1 %40, label %41, label %lean_alloc_ctor.exit

41:                                               ; preds = %lean_dec.exit
  tail call void @lean_internal_panic_out_of_memory() #5
  unreachable

lean_alloc_ctor.exit:                             ; preds = %lean_dec.exit
  %42 = getelementptr inbounds nuw i8, ptr %39, i64 4
  store i32 1, ptr %39, align 4, !tbaa !4
  store i32 131096, ptr %42, align 4
  %43 = getelementptr inbounds nuw i8, ptr %39, i64 8
  store ptr %11, ptr %43, align 8, !tbaa !9
  %44 = getelementptr inbounds nuw i8, ptr %39, i64 16
  store ptr %13, ptr %44, align 8, !tbaa !9
  br label %45

45:                                               ; preds = %6, %lean_alloc_ctor.exit
  %.0 = phi ptr [ %39, %lean_alloc_ctor.exit ], [ %7, %6 ]
  ret ptr %.0
}